; Function Attrs: nounwind uwtable
define hidden void @je_tsd_slow_update(ptr noundef %0) local_unnamed_addr #0 {
  %2 = getelementptr i8, ptr %0, i64 888
  %3 = getelementptr inbounds nuw i8, ptr %0, i64 1
  br label %4

4:                                                ; preds = %atomic_exchange_u8.exit, %1
  %.val.i = load i8, ptr %2, align 8, !tbaa !44
  %5 = icmp ult i8 %.val.i, 3
  br i1 %5, label %6, label %atomic_exchange_u8.exit

6:                                                ; preds = %4
  %7 = load i8, ptr @je_malloc_slow, align 1, !tbaa !45, !range !46, !noundef !47
  %8 = trunc nuw i8 %7 to i1
  br i1 %8, label %atomic_exchange_u8.exit, label %9

9:                                                ; preds = %6
  %10 = load i8, ptr %0, align 1, !tbaa !45, !range !46, !noundef !47
  %11 = trunc nuw i8 %10 to i1
  br i1 %11, label %tsd_local_slow.exit.i, label %atomic_exchange_u8.exit

tsd_local_slow.exit.i:                            ; preds = %9
  %12 = load i8, ptr %3, align 1, !tbaa !44
  %13 = icmp sgt i8 %12, 0
  br i1 %13, label %atomic_exchange_u8.exit, label %14

14:                                               ; preds = %tsd_local_slow.exit.i
  %15 = load atomic i32, ptr @tsd_global_slow_count monotonic, align 4
  %.not.i = icmp ne i32 %15, 0
  %spec.select.i = zext i1 %.not.i to i8
  br label %atomic_exchange_u8.exit

atomic_exchange_u8.exit:                          ; preds = %4, %6, %9, %tsd_local_slow.exit.i, %14
  %.0.i5 = phi i8 [ 1, %tsd_local_slow.exit.i ], [ 1, %6 ], [ %spec.select.i, %14 ], [ %.val.i, %4 ], [ 1, %9 ]
  %16 = atomicrmw xchg ptr %2, i8 %.0.i5 acquire, align 1
  %17 = icmp eq i8 %16, 2
  br i1 %17, label %4, label %18, !llvm.loop !48

18:                                               ; preds = %atomic_exchange_u8.exit
  tail call void @je_te_recompute_fast_threshold(ptr noundef nonnull %0) #7
  ret void
}